; Function Attrs: mustprogress nofree norecurse nosync nounwind memory(readwrite, inaccessiblemem: none) uwtable
define hidden noundef i32 @_ZN3smt9theory_pb7arg_maxERi(ptr noundef nonnull readonly align 8 captures(none) dereferenceable(968) %0, ptr noundef nonnull writeonly align 4 captures(none) dereferenceable(4) initializes((0, 4)) %1) local_unnamed_addr #10 align 2 {
  store i32 0, ptr %1, align 4, !tbaa !9
  %3 = getelementptr inbounds nuw i8, ptr %0, i64 960
  %4 = load ptr, ptr %3, align 8, !tbaa !660
  %5 = icmp eq ptr %4, null
  br i1 %5, label %_ZNK6vectorIjLb0EjE5emptyEv.exit.thread, label %_ZNK6vectorIjLb0EjE5emptyEv.exit.lr.ph

_ZNK6vectorIjLb0EjE5emptyEv.exit.lr.ph:           ; preds = %2
  %6 = getelementptr inbounds i8, ptr %4, i64 -4
  %7 = getelementptr inbounds nuw i8, ptr %0, i64 952
  %8 = load ptr, ptr %7, align 8
  %9 = load i32, ptr %6, align 4, !tbaa !9
  %10 = icmp eq i32 %9, 0
  br i1 %10, label %_ZNK6vectorIjLb0EjE5emptyEv.exit.thread, label %_ZN6vectorIjLb0EjE4backEv.exit

_ZN6vectorIjLb0EjE4backEv.exit:                   ; preds = %_ZNK6vectorIjLb0EjE5emptyEv.exit.lr.ph, %_ZNK6vectorIjLb0EjE5emptyEv.exit6.thread
  %11 = phi i32 [ %24, %_ZNK6vectorIjLb0EjE5emptyEv.exit6.thread ], [ %9, %_ZNK6vectorIjLb0EjE5emptyEv.exit.lr.ph ]
  %12 = add i32 %11, -1
  %13 = zext i32 %12 to i64
  %14 = getelementptr inbounds nuw i32, ptr %4, i64 %13
  %15 = load i32, ptr %14, align 4, !tbaa !9
  store i32 %15, ptr %1, align 4, !tbaa !9
  %16 = zext i32 %15 to i64
  %17 = getelementptr inbounds nuw %class.svector.5, ptr %8, i64 %16
  %18 = load ptr, ptr %17, align 8, !tbaa !660
  %19 = icmp eq ptr %18, null
  br i1 %19, label %_ZNK6vectorIjLb0EjE5emptyEv.exit6.thread, label %_ZNK6vectorIjLb0EjE5emptyEv.exit6

_ZNK6vectorIjLb0EjE5emptyEv.exit6:                ; preds = %_ZN6vectorIjLb0EjE4backEv.exit
  %20 = getelementptr inbounds i8, ptr %18, i64 -4
  %21 = load i32, ptr %20, align 4, !tbaa !9
  %22 = icmp eq i32 %21, 0
  br i1 %22, label %_ZNK6vectorIjLb0EjE5emptyEv.exit6.thread, label %_ZN6vectorIjLb0EjE4backEv.exit8

_ZNK6vectorIjLb0EjE5emptyEv.exit6.thread:         ; preds = %_ZN6vectorIjLb0EjE4backEv.exit, %_ZNK6vectorIjLb0EjE5emptyEv.exit6
  %23 = load i32, ptr %6, align 4, !tbaa !9
  %24 = add i32 %23, -1
  store i32 %24, ptr %6, align 4, !tbaa !9
  %25 = icmp eq i32 %24, 0
  br i1 %25, label %_ZNK6vectorIjLb0EjE5emptyEv.exit.thread, label %_ZN6vectorIjLb0EjE4backEv.exit

_ZN6vectorIjLb0EjE4backEv.exit8:                  ; preds = %_ZNK6vectorIjLb0EjE5emptyEv.exit6
  %26 = getelementptr inbounds i8, ptr %18, i64 -4
  %27 = add i32 %21, -1
  %28 = zext i32 %27 to i64
  %29 = getelementptr inbounds nuw i32, ptr %18, i64 %28
  %30 = load i32, ptr %29, align 4, !tbaa !9
  store i32 %27, ptr %26, align 4, !tbaa !9
  br label %_ZNK6vectorIjLb0EjE5emptyEv.exit.thread

_ZNK6vectorIjLb0EjE5emptyEv.exit.thread:          ; preds = %_ZNK6vectorIjLb0EjE5emptyEv.exit6.thread, %2, %_ZNK6vectorIjLb0EjE5emptyEv.exit.lr.ph, %_ZN6vectorIjLb0EjE4backEv.exit8
  %.0 = phi i32 [ %30, %_ZN6vectorIjLb0EjE4backEv.exit8 ], [ -1, %_ZNK6vectorIjLb0EjE5emptyEv.exit.lr.ph ], [ -1, %2 ], [ -1, %_ZNK6vectorIjLb0EjE5emptyEv.exit6.thread ]
  ret i32 %.0
}